#include <math.h>
#include <stdio.h>
#include <stdlib.h>
#include <string.h>

main()
{
	int w;
	scanf("%d",&w);
	w=w+7;
	if(w%7==0)
	{
		printf("1\n");
	}
	w=w+31;
	if(w%7==0)
	{
		printf("2\n");
	}
	w=w+28;
	if(w%7==0)
	{
		printf("3\n");
	}
	w=w+31;
	if(w%7==0)
	{
		printf("4\n");
	}
	w=w+30;
	if(w%7==0)
	{
		printf("5\n");
	}
	w=w+31;
	if(w%7==0)
	{
		printf("6\n");
	}
	w=w+30;
	if(w%7==0)
	{
		printf("7\n");
	}
	w=w+31;
	if(w%7==0)
	{
		printf("8\n");
	}	
	w=w+31;
	if(w%7==0)
	{
		printf("9\n");
	}
	w=w+30;
	if(w%7==0)
	{
		printf("10\n");
	}	
	w=w+31;
	if(w%7==0)
	{
		printf("11\n");
	}
	w=w+30;
	if(w%7==0)
	{
		printf("12\n");
	}
}